; Function Attrs: nounwind uwtable
define internal i32 @ecdsa_verify(ptr noundef %0, ptr noundef %1, i64 noundef %2, ptr noundef %3, i64 noundef %4) #0 {
  %6 = alloca [64 x i8], align 16
  %7 = alloca i32, align 4
  %8 = alloca [2 x %struct.ossl_param_st], align 16
  %9 = alloca %struct.ossl_param_st, align 8
  %10 = getelementptr inbounds nuw i8, ptr %0, i64 24
  %11 = load i32, ptr %10, align 8, !tbaa !17
  %12 = icmp eq i32 %11, 32768
  br i1 %12, label %13, label %44

13:                                               ; preds = %5
  call void @llvm.lifetime.start.p0(i64 80, ptr nonnull %8) #8
  call void @OSSL_PARAM_construct_octet_string(ptr dead_on_unwind nonnull writable sret(%struct.ossl_param_st) align 8 %8, ptr noundef nonnull @.str.3, ptr noundef %1, i64 noundef %2) #8
  %14 = getelementptr inbounds nuw i8, ptr %8, i64 40
  call void @llvm.lifetime.start.p0(i64 40, ptr nonnull %9) #8
  call void @OSSL_PARAM_construct_end(ptr dead_on_unwind nonnull writable sret(%struct.ossl_param_st) align 8 %9) #8
  call void @llvm.memcpy.p0.p0.i64(ptr noundef nonnull align 8 dereferenceable(40) %14, ptr noundef nonnull align 8 dereferenceable(40) %9, i64 40, i1 false), !tbaa.struct !22
  call void @llvm.lifetime.end.p0(i64 40, ptr nonnull %9) #8
  %15 = call range(i32 0, 2) i32 @ecdsa_sigalg_set_ctx_params(ptr noundef nonnull %0, ptr noundef nonnull %8)
  call void @llvm.lifetime.end.p0(i64 80, ptr nonnull %8) #8
  %.not.not = icmp eq i32 %15, 0
  br i1 %.not.not, label %ecdsa_verify_directly.exit, label %ecdsa_signverify_message_update.exit

ecdsa_signverify_message_update.exit:             ; preds = %13
  %16 = getelementptr inbounds nuw i8, ptr %0, i64 360
  %17 = load ptr, ptr %16, align 8, !tbaa !18
  %18 = call i32 @EVP_DigestUpdate(ptr noundef %17, ptr noundef %3, i64 noundef %4) #8
  %19 = icmp slt i32 %18, 1
  br i1 %19, label %ecdsa_verify_directly.exit, label %20

20:                                               ; preds = %ecdsa_signverify_message_update.exit
  call void @llvm.lifetime.start.p0(i64 64, ptr nonnull %6) #8
  call void @llvm.lifetime.start.p0(i64 4, ptr nonnull %7) #8
  store i32 0, ptr %7, align 4, !tbaa !21
  %21 = call i32 @ossl_prov_is_running() #8
  %22 = icmp eq i32 %21, 0
  br i1 %22, label %ecdsa_verify_message_final.exit, label %23

23:                                               ; preds = %20
  %24 = load ptr, ptr %16, align 8, !tbaa !18
  %25 = icmp eq ptr %24, null
  br i1 %25, label %ecdsa_verify_message_final.exit, label %26

26:                                               ; preds = %23
  %27 = call i32 @EVP_DigestFinal_ex(ptr noundef nonnull %24, ptr noundef nonnull %6, ptr noundef nonnull %7) #8
  %.not.i = icmp eq i32 %27, 0
  br i1 %.not.i, label %ecdsa_verify_message_final.exit, label %28

28:                                               ; preds = %26
  %29 = getelementptr inbounds nuw i8, ptr %0, i64 376
  %30 = load ptr, ptr %29, align 8, !tbaa !25
  %31 = getelementptr inbounds nuw i8, ptr %0, i64 384
  %32 = load i64, ptr %31, align 8, !tbaa !26
  %33 = load i32, ptr %7, align 4, !tbaa !21
  %34 = call i32 @ossl_prov_is_running() #8
  %.not.i.i = icmp eq i32 %34, 0
  br i1 %.not.i.i, label %ecdsa_verify_message_final.exit, label %35

35:                                               ; preds = %28
  %36 = zext i32 %33 to i64
  %37 = getelementptr inbounds nuw i8, ptr %0, i64 368
  %38 = load i64, ptr %37, align 8, !tbaa !27
  %.not10.i.i = icmp eq i64 %38, 0
  %.not11.i.i = icmp eq i64 %38, %36
  %or.cond.i.i = or i1 %.not10.i.i, %.not11.i.i
  br i1 %or.cond.i.i, label %39, label %ecdsa_verify_message_final.exit

39:                                               ; preds = %35
  %40 = trunc i64 %32 to i32
  %41 = getelementptr inbounds nuw i8, ptr %0, i64 16
  %42 = load ptr, ptr %41, align 8, !tbaa !19
  %43 = call i32 @ECDSA_verify(i32 noundef 0, ptr noundef nonnull %6, i32 noundef %33, ptr noundef %30, i32 noundef %40, ptr noundef %42) #8
  br label %ecdsa_verify_message_final.exit

ecdsa_verify_message_final.exit:                  ; preds = %20, %23, %26, %28, %35, %39
  %.0.i14 = phi i32 [ 0, %23 ], [ 0, %20 ], [ 0, %26 ], [ %43, %39 ], [ 0, %35 ], [ 0, %28 ]
  call void @llvm.lifetime.end.p0(i64 4, ptr nonnull %7) #8
  call void @llvm.lifetime.end.p0(i64 64, ptr nonnull %6) #8
  br label %ecdsa_verify_directly.exit

44:                                               ; preds = %5
  %45 = tail call i32 @ossl_prov_is_running() #8
  %.not.i15 = icmp eq i32 %45, 0
  br i1 %.not.i15, label %ecdsa_verify_directly.exit, label %46

46:                                               ; preds = %44
  %47 = getelementptr inbounds nuw i8, ptr %0, i64 368
  %48 = load i64, ptr %47, align 8, !tbaa !27
  %.not10.i = icmp eq i64 %48, 0
  %.not11.i = icmp eq i64 %4, %48
  %or.cond.i16 = or i1 %.not10.i, %.not11.i
  br i1 %or.cond.i16, label %49, label %ecdsa_verify_directly.exit

49:                                               ; preds = %46
  %50 = trunc i64 %4 to i32
  %51 = trunc i64 %2 to i32
  %52 = getelementptr inbounds nuw i8, ptr %0, i64 16
  %53 = load ptr, ptr %52, align 8, !tbaa !19
  %54 = tail call i32 @ECDSA_verify(i32 noundef 0, ptr noundef %3, i32 noundef %50, ptr noundef %1, i32 noundef %51, ptr noundef %53) #8
  br label %ecdsa_verify_directly.exit

ecdsa_verify_directly.exit:                       ; preds = %49, %46, %44, %ecdsa_signverify_message_update.exit, %13, %ecdsa_verify_message_final.exit
  %.0 = phi i32 [ %.0.i14, %ecdsa_verify_message_final.exit ], [ 0, %13 ], [ 0, %ecdsa_signverify_message_update.exit ], [ %54, %49 ], [ 0, %46 ], [ 0, %44 ]
  ret i32 %.0
}